(dp0
S'technology'
p1
cnumpy.core.multiarray
_reconstruct
p2
(cnumpy
ndarray
p3
(I0
tp4
S'b'
p5
tp6
Rp7
(I1
(I3
tp8
cnumpy
dtype
p9
(S'f8'
p10
I0
I1
tp11
Rp12
(I3
S'<'
p13
NNNI-1
I-1
I0
tp14
bI00
S'UUUUUU\xd5?UUUUUU\xd5?UUUUUU\xd5?'
p15
tp16
bsS'general'
p17
(lp18
cnumpy.core.multiarray
scalar
p19
(g12
S'\xf4\x9ek\xfa\x8f;\xe1?'
p20
tp21
Rp22
ag19
(g12
S'\xb6\xb4\nC\xdc\xb0\xda?'
p23
tp24
Rp25
ag19
(g12
S'%k\xf0@\x1e\xc0\xa6?'
p26
tp27
Rp28
as.